target datalayout = "e-m:e-p270:32:32-p271:32:32-p272:64:64-i64:64-i128:128-f80:128-n8:16:32:64-S128"
target triple = "x86_64-pc-linux-gnu"

%struct._object = type { %union.anon, ptr }
%union.anon = type { i64 }
%struct.anon = type { i32, i32 }
%struct._lsprof_state = type { ptr, ptr, ptr }
%struct.statscollector_t = type { ptr, ptr, double, ptr }
%struct._ProfilerEntry = type { %struct.rotating_node_s, ptr, i64, i64, i64, i64, i64, ptr }
%struct.rotating_node_s = type { ptr, ptr, ptr }

@_Py_NoneStruct = external global %struct._object, align 8
@.str.17 = private unnamed_addr constant [11 x i8] c"((OllddO))\00", align 1

; Function Attrs: alwaysinline nounwind uwtable
define internal void @Py_INCREF(ptr noundef %0) #2 {
  %2 = alloca ptr, align 8
  %3 = alloca i32, align 4
  %4 = alloca i32, align 4
  store ptr %0, ptr %2, align 8, !tbaa !3
  call void @llvm.lifetime.start.p0(i64 4, ptr %3) #6
  %5 = load ptr, ptr %2, align 8, !tbaa !3
  %6 = getelementptr inbounds nuw %struct._object, ptr %5, i32 0, i32 0
  %7 = getelementptr inbounds nuw %struct.anon, ptr %6, i32 0, i32 0
  %8 = load i32, ptr %7, align 8, !tbaa !21
  store i32 %8, ptr %3, align 4, !tbaa !22
  %9 = load i32, ptr %3, align 4, !tbaa !22
  %10 = icmp slt i32 %9, 0
  br i1 %10, label %11, label %12

11:                                               ; preds = %1
  store i32 1, ptr %4, align 4
  br label %18

12:                                               ; preds = %1
  %13 = load i32, ptr %3, align 4, !tbaa !22
  %14 = add i32 %13, 1
  %15 = load ptr, ptr %2, align 8, !tbaa !3
  %16 = getelementptr inbounds nuw %struct._object, ptr %15, i32 0, i32 0
  %17 = getelementptr inbounds nuw %struct.anon, ptr %16, i32 0, i32 0
  store i32 %14, ptr %17, align 8, !tbaa !21
  store i32 0, ptr %4, align 4
  br label %18

18:                                               ; preds = %12, %11
  call void @llvm.lifetime.end.p0(i64 4, ptr %3) #6
  %19 = load i32, ptr %4, align 4
  switch i32 %19, label %21 [
    i32 0, label %20
    i32 1, label %20
  ]

20:                                               ; preds = %18, %18
  ret void

21:                                               ; preds = %18
  unreachable
}

; Function Attrs: alwaysinline nounwind uwtable
define internal i32 @_Py_IsImmortal(ptr noundef %0) #2 {
  %2 = alloca ptr, align 8
  store ptr %0, ptr %2, align 8, !tbaa !3
  %3 = load ptr, ptr %2, align 8, !tbaa !3
  %4 = getelementptr inbounds nuw %struct._object, ptr %3, i32 0, i32 0
  %5 = getelementptr inbounds nuw %struct.anon, ptr %4, i32 0, i32 0
  %6 = load i32, ptr %5, align 8, !tbaa !21
  %7 = icmp slt i32 %6, 0
  %8 = zext i1 %7 to i32
  ret i32 %8
}

; Function Attrs: inlinehint nounwind uwtable
define internal ptr @_Py_NewRef(ptr noundef %0) #1 {
  %2 = alloca ptr, align 8
  store ptr %0, ptr %2, align 8, !tbaa !3
  %3 = load ptr, ptr %2, align 8, !tbaa !3
  call void @Py_INCREF(ptr noundef %3)
  %4 = load ptr, ptr %2, align 8, !tbaa !3
  ret ptr %4
}

; Function Attrs: alwaysinline nounwind uwtable
define internal void @Py_DECREF(ptr noundef %0) #2 {
  %2 = alloca ptr, align 8
  store ptr %0, ptr %2, align 8, !tbaa !3
  %3 = load ptr, ptr %2, align 8, !tbaa !3
  %4 = call i32 @_Py_IsImmortal(ptr noundef %3)
  %5 = icmp ne i32 %4, 0
  br i1 %5, label %6, label %7

6:                                                ; preds = %1
  br label %16

7:                                                ; preds = %1
  %8 = load ptr, ptr %2, align 8, !tbaa !3
  %9 = getelementptr inbounds nuw %struct._object, ptr %8, i32 0, i32 0
  %10 = getelementptr inbounds nuw %struct.anon, ptr %9, i32 0, i32 0
  %11 = load i32, ptr %10, align 8, !tbaa !21
  %12 = add i32 %11, -1
  store i32 %12, ptr %10, align 8, !tbaa !21
  %13 = icmp eq i32 %12, 0
  br i1 %13, label %14, label %16

14:                                               ; preds = %7
  %15 = load ptr, ptr %2, align 8, !tbaa !3
  call void @_Py_Dealloc(ptr noundef %15)
  br label %16

16:                                               ; preds = %6, %14, %7
  ret void
}

; Function Attrs: nounwind uwtable
define internal i32 @statsForEntry(ptr noundef %0, ptr noundef %1) #0 {
  %3 = alloca i32, align 4
  %4 = alloca ptr, align 8
  %5 = alloca ptr, align 8
  %6 = alloca ptr, align 8
  %7 = alloca ptr, align 8
  %8 = alloca ptr, align 8
  %9 = alloca i32, align 4
  %10 = alloca i32, align 4
  store ptr %0, ptr %4, align 8, !tbaa !65
  store ptr %1, ptr %5, align 8, !tbaa !24
  call void @llvm.lifetime.start.p0(i64 8, ptr %6) #6
  %11 = load ptr, ptr %4, align 8, !tbaa !65
  store ptr %11, ptr %6, align 8, !tbaa !66
  call void @llvm.lifetime.start.p0(i64 8, ptr %7) #6
  %12 = load ptr, ptr %5, align 8, !tbaa !24
  store ptr %12, ptr %7, align 8, !tbaa !24
  call void @llvm.lifetime.start.p0(i64 8, ptr %8) #6
  call void @llvm.lifetime.start.p0(i64 4, ptr %9) #6
  %13 = load ptr, ptr %6, align 8, !tbaa !66
  %14 = getelementptr inbounds nuw %struct._ProfilerEntry, ptr %13, i32 0, i32 4
  %15 = load i64, ptr %14, align 8, !tbaa !68
  %16 = icmp eq i64 %15, 0
  br i1 %16, label %17, label %18

17:                                               ; preds = %2
  store i32 0, ptr %3, align 4
  store i32 1, ptr %10, align 4
  br label %97

18:                                               ; preds = %2
  %19 = load ptr, ptr %6, align 8, !tbaa !66
  %20 = getelementptr inbounds nuw %struct._ProfilerEntry, ptr %19, i32 0, i32 7
  %21 = load ptr, ptr %20, align 8, !tbaa !71
  %22 = icmp ne ptr %21, null
  br i1 %22, label %23, label %44

23:                                               ; preds = %18
  %24 = call ptr @PyList_New(i64 noundef 0)
  %25 = load ptr, ptr %7, align 8, !tbaa !24
  %26 = getelementptr inbounds nuw %struct.statscollector_t, ptr %25, i32 0, i32 1
  store ptr %24, ptr %26, align 8, !tbaa !72
  %27 = load ptr, ptr %7, align 8, !tbaa !24
  %28 = getelementptr inbounds nuw %struct.statscollector_t, ptr %27, i32 0, i32 1
  %29 = load ptr, ptr %28, align 8, !tbaa !72
  %30 = icmp eq ptr %29, null
  br i1 %30, label %31, label %32

31:                                               ; preds = %23
  store i32 -1, ptr %3, align 4
  store i32 1, ptr %10, align 4
  br label %97

32:                                               ; preds = %23
  %33 = load ptr, ptr %6, align 8, !tbaa !66
  %34 = getelementptr inbounds nuw %struct._ProfilerEntry, ptr %33, i32 0, i32 7
  %35 = load ptr, ptr %34, align 8, !tbaa !71
  %36 = load ptr, ptr %7, align 8, !tbaa !24
  %37 = call i32 @RotatingTree_Enum(ptr noundef %35, ptr noundef @statsForSubEntry, ptr noundef %36)
  %38 = icmp ne i32 %37, 0
  br i1 %38, label %39, label %43

39:                                               ; preds = %32
  %40 = load ptr, ptr %7, align 8, !tbaa !24
  %41 = getelementptr inbounds nuw %struct.statscollector_t, ptr %40, i32 0, i32 1
  %42 = load ptr, ptr %41, align 8, !tbaa !72
  call void @Py_DECREF(ptr noundef %42)
  store i32 -1, ptr %3, align 4
  store i32 1, ptr %10, align 4
  br label %97

43:                                               ; preds = %32
  br label %48

44:                                               ; preds = %18
  %45 = call ptr @_Py_NewRef(ptr noundef @_Py_NoneStruct)
  %46 = load ptr, ptr %7, align 8, !tbaa !24
  %47 = getelementptr inbounds nuw %struct.statscollector_t, ptr %46, i32 0, i32 1
  store ptr %45, ptr %47, align 8, !tbaa !72
  br label %48

48:                                               ; preds = %44, %43
  %49 = load ptr, ptr %7, align 8, !tbaa !24
  %50 = getelementptr inbounds nuw %struct.statscollector_t, ptr %49, i32 0, i32 3
  %51 = load ptr, ptr %50, align 8, !tbaa !44
  %52 = getelementptr inbounds nuw %struct._lsprof_state, ptr %51, i32 0, i32 1
  %53 = load ptr, ptr %52, align 8, !tbaa !27
  %54 = load ptr, ptr %6, align 8, !tbaa !66
  %55 = getelementptr inbounds nuw %struct._ProfilerEntry, ptr %54, i32 0, i32 1
  %56 = load ptr, ptr %55, align 8, !tbaa !73
  %57 = load ptr, ptr %6, align 8, !tbaa !66
  %58 = getelementptr inbounds nuw %struct._ProfilerEntry, ptr %57, i32 0, i32 4
  %59 = load i64, ptr %58, align 8, !tbaa !68
  %60 = load ptr, ptr %6, align 8, !tbaa !66
  %61 = getelementptr inbounds nuw %struct._ProfilerEntry, ptr %60, i32 0, i32 5
  %62 = load i64, ptr %61, align 8, !tbaa !74
  %63 = load ptr, ptr %7, align 8, !tbaa !24
  %64 = getelementptr inbounds nuw %struct.statscollector_t, ptr %63, i32 0, i32 2
  %65 = load double, ptr %64, align 8, !tbaa !47
  %66 = load ptr, ptr %6, align 8, !tbaa !66
  %67 = getelementptr inbounds nuw %struct._ProfilerEntry, ptr %66, i32 0, i32 2
  %68 = load i64, ptr %67, align 8, !tbaa !75
  %69 = sitofp i64 %68 to double
  %70 = fmul double %65, %69
  %71 = load ptr, ptr %7, align 8, !tbaa !24
  %72 = getelementptr inbounds nuw %struct.statscollector_t, ptr %71, i32 0, i32 2
  %73 = load double, ptr %72, align 8, !tbaa !47
  %74 = load ptr, ptr %6, align 8, !tbaa !66
  %75 = getelementptr inbounds nuw %struct._ProfilerEntry, ptr %74, i32 0, i32 3
  %76 = load i64, ptr %75, align 8, !tbaa !76
  %77 = sitofp i64 %76 to double
  %78 = fmul double %73, %77
  %79 = load ptr, ptr %7, align 8, !tbaa !24
  %80 = getelementptr inbounds nuw %struct.statscollector_t, ptr %79, i32 0, i32 1
  %81 = load ptr, ptr %80, align 8, !tbaa !72
  %82 = call ptr (ptr, ptr, ...) @PyObject_CallFunction(ptr noundef %53, ptr noundef @.str.17, ptr noundef %56, i64 noundef %59, i64 noundef %62, double noundef %70, double noundef %78, ptr noundef %81)
  store ptr %82, ptr %8, align 8, !tbaa !3
  %83 = load ptr, ptr %7, align 8, !tbaa !24
  %84 = getelementptr inbounds nuw %struct.statscollector_t, ptr %83, i32 0, i32 1
  %85 = load ptr, ptr %84, align 8, !tbaa !72
  call void @Py_DECREF(ptr noundef %85)
  %86 = load ptr, ptr %8, align 8, !tbaa !3
  %87 = icmp eq ptr %86, null
  br i1 %87, label %88, label %89

88:                                               ; preds = %48
  store i32 -1, ptr %3, align 4
  store i32 1, ptr %10, align 4
  br label %97

89:                                               ; preds = %48
  %90 = load ptr, ptr %7, align 8, !tbaa !24
  %91 = getelementptr inbounds nuw %struct.statscollector_t, ptr %90, i32 0, i32 0
  %92 = load ptr, ptr %91, align 8, !tbaa !48
  %93 = load ptr, ptr %8, align 8, !tbaa !3
  %94 = call i32 @PyList_Append(ptr noundef %92, ptr noundef %93)
  store i32 %94, ptr %9, align 4, !tbaa !22
  %95 = load ptr, ptr %8, align 8, !tbaa !3
  call void @Py_DECREF(ptr noundef %95)
  %96 = load i32, ptr %9, align 4, !tbaa !22
  store i32 %96, ptr %3, align 4
  store i32 1, ptr %10, align 4
  br label %97

97:                                               ; preds = %89, %88, %39, %31, %17
  call void @llvm.lifetime.end.p0(i64 4, ptr %9) #6
  call void @llvm.lifetime.end.p0(i64 8, ptr %8) #6
  call void @llvm.lifetime.end.p0(i64 8, ptr %7) #6
  call void @llvm.lifetime.end.p0(i64 8, ptr %6) #6
  %98 = load i32, ptr %3, align 4
  ret i32 %98
}