; Function Attrs: nounwind uwtable
define internal i32 @statsForEntry(ptr noundef readonly captures(none) %0, ptr noundef %1) #0 {
  %3 = getelementptr inbounds nuw i8, ptr %0, i64 48
  %4 = load i64, ptr %3, align 8, !tbaa !76
  %5 = icmp eq i64 %4, 0
  br i1 %5, label %Py_DECREF.exit, label %6

6:                                                ; preds = %2
  %7 = getelementptr inbounds nuw i8, ptr %0, i64 72
  %8 = load ptr, ptr %7, align 8, !tbaa !79
  %.not = icmp eq ptr %8, null
  br i1 %.not, label %22, label %9

9:                                                ; preds = %6
  %10 = tail call ptr @PyList_New(i64 noundef 0) #5
  %11 = getelementptr inbounds nuw i8, ptr %1, i64 8
  store ptr %10, ptr %11, align 8, !tbaa !80
  %12 = icmp eq ptr %10, null
  br i1 %12, label %Py_DECREF.exit, label %13

13:                                               ; preds = %9
  %14 = load ptr, ptr %7, align 8, !tbaa !79
  %15 = tail call i32 @RotatingTree_Enum(ptr noundef %14, ptr noundef nonnull @statsForSubEntry, ptr noundef nonnull %1) #5
  %.not26 = icmp eq i32 %15, 0
  br i1 %.not26, label %._crit_edge, label %16

._crit_edge:                                      ; preds = %13
  %.pre = load i64, ptr %3, align 8, !tbaa !76
  %.pre33 = load ptr, ptr %11, align 8, !tbaa !80
  br label %28

16:                                               ; preds = %13
  %17 = load ptr, ptr %11, align 8, !tbaa !80
  %18 = load i32, ptr %17, align 8, !tbaa !9
  %.not.i = icmp sgt i32 %18, -1
  br i1 %.not.i, label %19, label %Py_DECREF.exit

19:                                               ; preds = %16
  %20 = add nsw i32 %18, -1
  store i32 %20, ptr %17, align 8, !tbaa !9
  %21 = icmp eq i32 %20, 0
  br i1 %21, label %Py_DECREF.exit.sink.split, label %Py_DECREF.exit

22:                                               ; preds = %6
  %23 = load i32, ptr @_Py_NoneStruct, align 8, !tbaa !9
  %24 = icmp slt i32 %23, 0
  br i1 %24, label %_Py_NewRef.exit, label %25

25:                                               ; preds = %22
  %26 = add nuw i32 %23, 1
  store i32 %26, ptr @_Py_NoneStruct, align 8, !tbaa !9
  br label %_Py_NewRef.exit

_Py_NewRef.exit:                                  ; preds = %22, %25
  %27 = getelementptr inbounds nuw i8, ptr %1, i64 8
  store ptr @_Py_NoneStruct, ptr %27, align 8, !tbaa !80
  br label %28

28:                                               ; preds = %._crit_edge, %_Py_NewRef.exit
  %29 = phi ptr [ %.pre33, %._crit_edge ], [ @_Py_NoneStruct, %_Py_NewRef.exit ]
  %30 = phi i64 [ %.pre, %._crit_edge ], [ %4, %_Py_NewRef.exit ]
  %31 = getelementptr inbounds nuw i8, ptr %1, i64 24
  %32 = load ptr, ptr %31, align 8, !tbaa !65
  %33 = getelementptr inbounds nuw i8, ptr %32, i64 8
  %34 = load ptr, ptr %33, align 8, !tbaa !23
  %35 = getelementptr inbounds nuw i8, ptr %0, i64 24
  %36 = load ptr, ptr %35, align 8, !tbaa !81
  %37 = getelementptr inbounds nuw i8, ptr %0, i64 56
  %38 = load i64, ptr %37, align 8, !tbaa !82
  %39 = getelementptr inbounds nuw i8, ptr %1, i64 16
  %40 = load double, ptr %39, align 8, !tbaa !67
  %41 = getelementptr inbounds nuw i8, ptr %0, i64 32
  %42 = load i64, ptr %41, align 8, !tbaa !83
  %43 = sitofp i64 %42 to double
  %44 = fmul double %40, %43
  %45 = getelementptr inbounds nuw i8, ptr %0, i64 40
  %46 = load i64, ptr %45, align 8, !tbaa !84
  %47 = sitofp i64 %46 to double
  %48 = fmul double %40, %47
  %49 = getelementptr inbounds nuw i8, ptr %1, i64 8
  %50 = tail call ptr (ptr, ptr, ...) @PyObject_CallFunction(ptr noundef %34, ptr noundef nonnull @.str.17, ptr noundef %36, i64 noundef %30, i64 noundef %38, double noundef %44, double noundef %48, ptr noundef %29) #5
  %51 = load ptr, ptr %49, align 8, !tbaa !80
  %52 = load i32, ptr %51, align 8, !tbaa !9
  %.not.i27 = icmp sgt i32 %52, -1
  br i1 %.not.i27, label %53, label %Py_DECREF.exit28

53:                                               ; preds = %28
  %54 = add nsw i32 %52, -1
  store i32 %54, ptr %51, align 8, !tbaa !9
  %55 = icmp eq i32 %54, 0
  br i1 %55, label %56, label %Py_DECREF.exit28

56:                                               ; preds = %53
  tail call void @_Py_Dealloc(ptr noundef nonnull %51) #5
  br label %Py_DECREF.exit28

Py_DECREF.exit28:                                 ; preds = %28, %53, %56
  %57 = icmp eq ptr %50, null
  br i1 %57, label %Py_DECREF.exit, label %58

58:                                               ; preds = %Py_DECREF.exit28
  %59 = load ptr, ptr %1, align 8, !tbaa !68
  %60 = tail call i32 @PyList_Append(ptr noundef %59, ptr noundef nonnull %50) #5
  %61 = load i32, ptr %50, align 8, !tbaa !9
  %.not.i29 = icmp sgt i32 %61, -1
  br i1 %.not.i29, label %62, label %Py_DECREF.exit

62:                                               ; preds = %58
  %63 = add nsw i32 %61, -1
  store i32 %63, ptr %50, align 8, !tbaa !9
  %64 = icmp eq i32 %63, 0
  br i1 %64, label %Py_DECREF.exit.sink.split, label %Py_DECREF.exit

Py_DECREF.exit.sink.split:                        ; preds = %62, %19
  %.sink = phi ptr [ %17, %19 ], [ %50, %62 ]
  %.0.ph = phi i32 [ -1, %19 ], [ %60, %62 ]
  tail call void @_Py_Dealloc(ptr noundef nonnull %.sink) #5
  br label %Py_DECREF.exit

Py_DECREF.exit:                                   ; preds = %Py_DECREF.exit.sink.split, %62, %58, %19, %16, %Py_DECREF.exit28, %9, %2
  %.0 = phi i32 [ 0, %2 ], [ -1, %9 ], [ -1, %Py_DECREF.exit28 ], [ -1, %16 ], [ -1, %19 ], [ %60, %58 ], [ %60, %62 ], [ %.0.ph, %Py_DECREF.exit.sink.split ]
  ret i32 %.0
}